target datalayout = "e-m:e-p270:32:32-p271:32:32-p272:64:64-i64:64-i128:128-f80:128-n8:16:32:64-S128"
target triple = "x86_64-pc-linux-gnu"

%struct.AVCodecContext = type { ptr, i32, i32, ptr, i32, i32, ptr, ptr, ptr, i64, i32, i32, ptr, i32, %struct.AVRational, %struct.AVRational, %struct.AVRational, i32, i32, i32, i32, i32, %struct.AVRational, i32, i32, i32, i32, i32, i32, i32, i32, i32, i32, i32, ptr, ptr, i32, float, float, float, float, float, float, float, float, float, i32, i32, i32, i32, i32, i32, i32, i32, i32, i32, i32, i32, ptr, ptr, ptr, i32, i32, i32, i32, i32, i32, i32, i32, i32, i32, %struct.AVChannelLayout, i32, i32, i32, i32, i32, i32, i32, i32, ptr, i32, i32, i32, float, float, i32, i32, i32, i32, i32, ptr, i64, i64, float, float, i32, i32, ptr, ptr, i32, i32, i32, i32, i32, ptr, ptr, ptr, ptr, i32, i32, [8 x i64], i32, i32, i32, i32, i32, i32, i32, ptr, ptr, i32, i32, i32, i32, i32, i32, i32, i32, i32, i32, ptr, ptr, i32, i32, ptr, ptr, ptr, ptr, i32, i32, i64, i32, i32, i64, ptr, i64, ptr, i32, ptr, i32 }
%struct.AVRational = type { i32, i32 }
%struct.AVChannelLayout = type { i32, i32, %union.anon, ptr }
%union.anon = type { i64 }
%struct.DCAContext = type { ptr, ptr, %struct.DCACoreDecoder, %struct.DCAExssParser, %struct.DCAXllDecoder, %struct.DCALbrDecoder, %struct.DCADSPContext, ptr, ptr, i32, i32, i32, i32, i32, %struct.AVChannelLayout }
%struct.DCACoreDecoder = type { ptr, %struct.GetBitContext, %struct.GetBitContext, i32, i32, i32, i32, i32, i32, i32, i32, i32, i32, i32, i32, i32, i32, i32, i32, i32, i32, i32, i32, i32, i32, [7 x i8], [7 x i8], [7 x i8], [7 x i8], [7 x i8], [7 x i8], [7 x [10 x i8]], [7 x [10 x i32]], [16 x i8], [7 x [64 x i8]], [7 x [64 x i16]], [7 x [64 x i8]], [16 x [7 x [32 x i8]]], [7 x [32 x [2 x i32]]], [7 x i8], [7 x [64 x i32]], i32, i32, [24 x i32], i32, i32, i32, i32, i32, i32, i32, i32, [2 x i32], [12 x i32], i32, i32, i32, i32, i32, i32, i32, i32, i32, ptr, [7 x [64 x ptr]], i32, ptr, [7 x [32 x ptr]], ptr, [8 x i8], [7 x %struct.DCADSPData], ptr, %struct.DCADCTContext, [2 x ptr], [2 x ptr], %struct.SynthFilterContext, ptr, ptr, i32, ptr, [32 x ptr], i32, float, [32 x i32], i32, i32, i32, i32 }
%struct.GetBitContext = type { ptr, ptr, i32, i32, i32 }
%struct.DCADSPData = type { %union.anon.0, i32, [12 x i8] }
%union.anon.0 = type { %struct.anon }
%struct.anon = type { [1024 x float], [64 x float] }
%struct.DCADCTContext = type { [2 x ptr] }
%struct.SynthFilterContext = type { ptr, ptr, ptr, ptr }
%struct.DCAExssParser = type { ptr, %struct.GetBitContext, i32, i32, i32, i32, i32, i32, i32, i32, [4 x i32], [1 x %struct.DCAExssAsset] }
%struct.DCAExssAsset = type { i32, i32, i32, i32, i32, i32, i32, i32, i32, i32, i32, i32, i32, i32, i32, i32, i32, i32, i32, i32, i32, i32, i32, i32, i32, i32, i32, i32, i32, i32 }
%struct.DCAXllDecoder = type { ptr, %struct.GetBitContext, i32, i32, i32, i32, i32, i32, i32, i32, i32, i32, i32, i32, [8 x i8], [3 x %struct.DCAXllChSet], ptr, i32, i32, i32, i32, i32, i32, ptr, i32, i32, ptr, i32, i32, i32, [32 x ptr], [8 x i8] }
%struct.DCAXllChSet = type { i32, i32, i32, i32, i32, i32, i32, i32, i32, i32, i32, [128 x i32], [16 x i32], [16 x i32], i32, [8 x i32], i32, i32, [2 x %struct.DCAXllBand], i32, [8 x i32], [8 x i32], [8 x i32], [8 x i32], [8 x i32], [4 x i8], [8 x [8 x i32]], [3 x i32], [3 x ptr], [8 x i8] }
%struct.DCAXllBand = type { i32, [8 x i32], [4 x i32], [8 x i32], i32, [8 x i32], [8 x [16 x i32]], i32, i32, [8 x i32], [8 x i32], [8 x ptr], [8 x ptr] }
%struct.DCALbrDecoder = type { ptr, %struct.GetBitContext, i32, i32, i32, i32, i32, i32, i32, i32, i32, i32, i32, i32, i32, i32, i32, i32, i32, i32, i32, [3 x [32 x i8]], [32 x i8], [3 x [32 x i8]], [3 x [32 x i8]], [6 x i32], [6 x [12 x [8 x i8]]], [6 x [3 x [64 x i8]]], [6 x [28 x i8]], [6 x [28 x [8 x i8]]], [6 x i32], [6 x [32 x [8 x i8]]], [6 x [8 x [5 x i8]]], i8, [2 x [6 x [3 x [2 x [8 x float]]]]], [32 x float], [6 x [32 x ptr]], ptr, i32, [4 x i8], [6 x [128 x float]], [128 x float], [64 x float], [5 x [2 x float]], float, [6 x i8], [5 x [32 x [2 x i16]]], [512 x %struct.DCALbrTone], i32, ptr, ptr, ptr, ptr, [8 x i8] }
%struct.DCALbrTone = type { i8, i8, i8, i8, [6 x i8], [6 x i8] }
%struct.DCADSPContext = type { ptr, ptr, [2 x ptr], ptr, [2 x ptr], ptr, ptr, [2 x ptr], ptr, ptr, ptr, ptr, ptr, ptr, ptr, ptr, ptr }

@ff_dca_set_channel_layout.dca2wav_norm = internal constant [28 x i8] c"\02\00\01\09\0A\03\08\04\05\09\0A\06\07\0C\0D\0E\03\06\07\0B\0C\0E\10\0F\11\08\04\05", align 16
@ff_dca_set_channel_layout.dca2wav_wide = internal constant [28 x i8] c"\02\00\01\04\05\03\08\04\05\09\0A\06\07\0C\0D\0E\03\09\0A\0B\0C\0E\10\0F\11\08\04\05", align 16

; Function Attrs: nounwind uwtable
define i32 @ff_dca_set_channel_layout(ptr noundef %0, ptr noundef %1, i32 noundef %2) #0 {
  %4 = alloca ptr, align 8
  %5 = alloca ptr, align 8
  %6 = alloca i32, align 4
  %7 = alloca ptr, align 8
  %8 = alloca i32, align 4
  %9 = alloca i32, align 4
  %10 = alloca i32, align 4
  %11 = alloca i32, align 4
  %12 = alloca [18 x i32], align 16
  %13 = alloca ptr, align 8
  store ptr %0, ptr %4, align 8, !tbaa !4
  store ptr %1, ptr %5, align 8, !tbaa !9
  store i32 %2, ptr %6, align 4, !tbaa !11
  call void @llvm.lifetime.start.p0(i64 8, ptr %7) #8
  %14 = load ptr, ptr %4, align 8, !tbaa !4
  %15 = getelementptr inbounds nuw %struct.AVCodecContext, ptr %14, i32 0, i32 6
  %16 = load ptr, ptr %15, align 8, !tbaa !13
  store ptr %16, ptr %7, align 8, !tbaa !31
  call void @llvm.lifetime.start.p0(i64 4, ptr %8) #8
  call void @llvm.lifetime.start.p0(i64 4, ptr %9) #8
  call void @llvm.lifetime.start.p0(i64 4, ptr %10) #8
  store i32 0, ptr %10, align 4, !tbaa !11
  %17 = load ptr, ptr %4, align 8, !tbaa !4
  %18 = getelementptr inbounds nuw %struct.AVCodecContext, ptr %17, i32 0, i32 71
  call void @av_channel_layout_uninit(ptr noundef %18)
  %19 = load ptr, ptr %7, align 8, !tbaa !31
  %20 = getelementptr inbounds nuw %struct.DCAContext, ptr %19, i32 0, i32 13
  %21 = load i32, ptr %20, align 16, !tbaa !33
  %22 = icmp eq i32 %21, 1
  br i1 %22, label %23, label %52

23:                                               ; preds = %3
  store i32 0, ptr %8, align 4, !tbaa !11
  br label %24

24:                                               ; preds = %41, %23
  %25 = load i32, ptr %8, align 4, !tbaa !11
  %26 = icmp slt i32 %25, 32
  br i1 %26, label %27, label %44

27:                                               ; preds = %24
  %28 = load i32, ptr %6, align 4, !tbaa !11
  %29 = load i32, ptr %8, align 4, !tbaa !11
  %30 = shl i32 1, %29
  %31 = and i32 %28, %30
  %32 = icmp ne i32 %31, 0
  br i1 %32, label %33, label %40

33:                                               ; preds = %27
  %34 = load i32, ptr %8, align 4, !tbaa !11
  %35 = load ptr, ptr %5, align 8, !tbaa !9
  %36 = load i32, ptr %10, align 4, !tbaa !11
  %37 = add nsw i32 %36, 1
  store i32 %37, ptr %10, align 4, !tbaa !11
  %38 = sext i32 %36 to i64
  %39 = getelementptr inbounds i32, ptr %35, i64 %38
  store i32 %34, ptr %39, align 4, !tbaa !11
  br label %40

40:                                               ; preds = %33, %27
  br label %41

41:                                               ; preds = %40
  %42 = load i32, ptr %8, align 4, !tbaa !11
  %43 = add nsw i32 %42, 1
  store i32 %43, ptr %8, align 4, !tbaa !11
  br label %24, !llvm.loop !48

44:                                               ; preds = %24
  %45 = load ptr, ptr %4, align 8, !tbaa !4
  %46 = getelementptr inbounds nuw %struct.AVCodecContext, ptr %45, i32 0, i32 71
  %47 = getelementptr inbounds nuw %struct.AVChannelLayout, ptr %46, i32 0, i32 0
  store i32 0, ptr %47, align 8, !tbaa !50
  %48 = load i32, ptr %10, align 4, !tbaa !11
  %49 = load ptr, ptr %4, align 8, !tbaa !4
  %50 = getelementptr inbounds nuw %struct.AVCodecContext, ptr %49, i32 0, i32 71
  %51 = getelementptr inbounds nuw %struct.AVChannelLayout, ptr %50, i32 0, i32 1
  store i32 %48, ptr %51, align 4, !tbaa !51
  br label %126

52:                                               ; preds = %3
  call void @llvm.lifetime.start.p0(i64 4, ptr %11) #8
  store i32 0, ptr %11, align 4, !tbaa !11
  call void @llvm.lifetime.start.p0(i64 72, ptr %12) #8
  call void @llvm.lifetime.start.p0(i64 8, ptr %13) #8
  %53 = load i32, ptr %6, align 4, !tbaa !11
  %54 = icmp eq i32 %53, 393247
  br i1 %54, label %58, label %55

55:                                               ; preds = %52
  %56 = load i32, ptr %6, align 4, !tbaa !11
  %57 = icmp eq i32 %56, 393279
  br i1 %57, label %58, label %59

58:                                               ; preds = %55, %52
  store ptr @ff_dca_set_channel_layout.dca2wav_wide, ptr %13, align 8, !tbaa !52
  br label %60

59:                                               ; preds = %55
  store ptr @ff_dca_set_channel_layout.dca2wav_norm, ptr %13, align 8, !tbaa !52
  br label %60

60:                                               ; preds = %59, %58
  store i32 0, ptr %8, align 4, !tbaa !11
  br label %61

61:                                               ; preds = %93, %60
  %62 = load i32, ptr %8, align 4, !tbaa !11
  %63 = icmp slt i32 %62, 28
  br i1 %63, label %64, label %96

64:                                               ; preds = %61
  %65 = load i32, ptr %6, align 4, !tbaa !11
  %66 = load i32, ptr %8, align 4, !tbaa !11
  %67 = shl i32 1, %66
  %68 = and i32 %65, %67
  %69 = icmp ne i32 %68, 0
  br i1 %69, label %70, label %92

70:                                               ; preds = %64
  %71 = load ptr, ptr %13, align 8, !tbaa !52
  %72 = load i32, ptr %8, align 4, !tbaa !11
  %73 = sext i32 %72 to i64
  %74 = getelementptr inbounds i8, ptr %71, i64 %73
  %75 = load i8, ptr %74, align 1, !tbaa !53
  %76 = zext i8 %75 to i32
  store i32 %76, ptr %9, align 4, !tbaa !11
  %77 = load i32, ptr %11, align 4, !tbaa !11
  %78 = load i32, ptr %9, align 4, !tbaa !11
  %79 = shl i32 1, %78
  %80 = and i32 %77, %79
  %81 = icmp ne i32 %80, 0
  br i1 %81, label %91, label %82

82:                                               ; preds = %70
  %83 = load i32, ptr %8, align 4, !tbaa !11
  %84 = load i32, ptr %9, align 4, !tbaa !11
  %85 = sext i32 %84 to i64
  %86 = getelementptr inbounds [18 x i32], ptr %12, i64 0, i64 %85
  store i32 %83, ptr %86, align 4, !tbaa !11
  %87 = load i32, ptr %9, align 4, !tbaa !11
  %88 = shl i32 1, %87
  %89 = load i32, ptr %11, align 4, !tbaa !11
  %90 = or i32 %89, %88
  store i32 %90, ptr %11, align 4, !tbaa !11
  br label %91

91:                                               ; preds = %82, %70
  br label %92

92:                                               ; preds = %91, %64
  br label %93

93:                                               ; preds = %92
  %94 = load i32, ptr %8, align 4, !tbaa !11
  %95 = add nsw i32 %94, 1
  store i32 %95, ptr %8, align 4, !tbaa !11
  br label %61, !llvm.loop !54

96:                                               ; preds = %61
  store i32 0, ptr %9, align 4, !tbaa !11
  br label %97

97:                                               ; preds = %117, %96
  %98 = load i32, ptr %9, align 4, !tbaa !11
  %99 = icmp slt i32 %98, 18
  br i1 %99, label %100, label %120

100:                                              ; preds = %97
  %101 = load i32, ptr %11, align 4, !tbaa !11
  %102 = load i32, ptr %9, align 4, !tbaa !11
  %103 = shl i32 1, %102
  %104 = and i32 %101, %103
  %105 = icmp ne i32 %104, 0
  br i1 %105, label %106, label %116

106:                                              ; preds = %100
  %107 = load i32, ptr %9, align 4, !tbaa !11
  %108 = sext i32 %107 to i64
  %109 = getelementptr inbounds [18 x i32], ptr %12, i64 0, i64 %108
  %110 = load i32, ptr %109, align 4, !tbaa !11
  %111 = load ptr, ptr %5, align 8, !tbaa !9
  %112 = load i32, ptr %10, align 4, !tbaa !11
  %113 = add nsw i32 %112, 1
  store i32 %113, ptr %10, align 4, !tbaa !11
  %114 = sext i32 %112 to i64
  %115 = getelementptr inbounds i32, ptr %111, i64 %114
  store i32 %110, ptr %115, align 4, !tbaa !11
  br label %116

116:                                              ; preds = %106, %100
  br label %117

117:                                              ; preds = %116
  %118 = load i32, ptr %9, align 4, !tbaa !11
  %119 = add nsw i32 %118, 1
  store i32 %119, ptr %9, align 4, !tbaa !11
  br label %97, !llvm.loop !55

120:                                              ; preds = %97
  %121 = load ptr, ptr %4, align 8, !tbaa !4
  %122 = getelementptr inbounds nuw %struct.AVCodecContext, ptr %121, i32 0, i32 71
  %123 = load i32, ptr %11, align 4, !tbaa !11
  %124 = sext i32 %123 to i64
  %125 = call i32 @av_channel_layout_from_mask(ptr noundef %122, i64 noundef %124)
  call void @llvm.lifetime.end.p0(i64 8, ptr %13) #8
  call void @llvm.lifetime.end.p0(i64 72, ptr %12) #8
  call void @llvm.lifetime.end.p0(i64 4, ptr %11) #8
  br label %126

126:                                              ; preds = %120, %44
  %127 = load i32, ptr %10, align 4, !tbaa !11
  call void @llvm.lifetime.end.p0(i64 4, ptr %10) #8
  call void @llvm.lifetime.end.p0(i64 4, ptr %9) #8
  call void @llvm.lifetime.end.p0(i64 4, ptr %8) #8
  call void @llvm.lifetime.end.p0(i64 8, ptr %7) #8
  ret i32 %127
}