; Function Attrs: nounwind uwtable
define i32 @ff_dca_set_channel_layout(ptr noundef %0, ptr noundef writeonly captures(none) %1, i32 noundef %2) local_unnamed_addr #0 {
  %4 = alloca [18 x i32], align 16
  %5 = getelementptr inbounds nuw i8, ptr %0, i64 32
  %6 = load ptr, ptr %5, align 8, !tbaa !4
  %7 = getelementptr inbounds nuw i8, ptr %0, i64 352
  tail call void @av_channel_layout_uninit(ptr noundef nonnull %7) #7
  %8 = getelementptr inbounds nuw i8, ptr %6, i64 77984
  %9 = load i32, ptr %8, align 16, !tbaa !27
  %10 = icmp eq i32 %9, 1
  br i1 %10, label %.preheader, label %21

.preheader:                                       ; preds = %3, %17
  %.03852 = phi i32 [ %.139, %17 ], [ 0, %3 ]
  %.04151 = phi i32 [ %18, %17 ], [ 0, %3 ]
  %11 = shl nuw i32 1, %.04151
  %12 = and i32 %11, %2
  %.not45 = icmp eq i32 %12, 0
  br i1 %.not45, label %17, label %13

13:                                               ; preds = %.preheader
  %14 = add nsw i32 %.03852, 1
  %15 = sext i32 %.03852 to i64
  %16 = getelementptr inbounds i32, ptr %1, i64 %15
  store i32 %.04151, ptr %16, align 4, !tbaa !43
  br label %17

17:                                               ; preds = %.preheader, %13
  %.139 = phi i32 [ %14, %13 ], [ %.03852, %.preheader ]
  %18 = add nuw nsw i32 %.04151, 1
  %exitcond58.not = icmp eq i32 %18, 32
  br i1 %exitcond58.not, label %19, label %.preheader, !llvm.loop !44

19:                                               ; preds = %17
  store i32 0, ptr %7, align 8, !tbaa !46
  %20 = getelementptr inbounds nuw i8, ptr %0, i64 356
  store i32 %.139, ptr %20, align 4, !tbaa !47
  br label %51

21:                                               ; preds = %3
  call void @llvm.lifetime.start.p0(i64 72, ptr nonnull %4) #7
  %22 = and i32 %2, -33
  %or.cond = icmp eq i32 %22, 393247
  %ff_dca_set_channel_layout.dca2wav_wide.ff_dca_set_channel_layout.dca2wav_norm = select i1 %or.cond, ptr @ff_dca_set_channel_layout.dca2wav_wide, ptr @ff_dca_set_channel_layout.dca2wav_norm
  br label %23

23:                                               ; preds = %21, %37
  %indvars.iv = phi i64 [ 0, %21 ], [ %indvars.iv.next, %37 ]
  %.03748 = phi i32 [ 0, %21 ], [ %.1, %37 ]
  %24 = trunc nuw nsw i64 %indvars.iv to i32
  %25 = shl nuw nsw i32 1, %24
  %26 = and i32 %25, %2
  %.not43 = icmp eq i32 %26, 0
  br i1 %.not43, label %37, label %27

27:                                               ; preds = %23
  %28 = getelementptr inbounds nuw i8, ptr %ff_dca_set_channel_layout.dca2wav_wide.ff_dca_set_channel_layout.dca2wav_norm, i64 %indvars.iv
  %29 = load i8, ptr %28, align 1, !tbaa !48
  %30 = zext nneg i8 %29 to i32
  %31 = shl nuw i32 1, %30
  %32 = and i32 %31, %.03748
  %.not44 = icmp eq i32 %32, 0
  br i1 %.not44, label %33, label %37

33:                                               ; preds = %27
  %34 = zext i8 %29 to i64
  %35 = getelementptr inbounds nuw [18 x i32], ptr %4, i64 0, i64 %34
  store i32 %24, ptr %35, align 4, !tbaa !43
  %36 = or i32 %31, %.03748
  br label %37

37:                                               ; preds = %23, %33, %27
  %.1 = phi i32 [ %.03748, %27 ], [ %36, %33 ], [ %.03748, %23 ]
  %indvars.iv.next = add nuw nsw i64 %indvars.iv, 1
  %exitcond.not = icmp eq i64 %indvars.iv.next, 28
  br i1 %exitcond.not, label %.preheader46, label %23, !llvm.loop !49

.preheader46:                                     ; preds = %37, %47
  %indvars.iv54 = phi i64 [ %indvars.iv.next55, %47 ], [ 0, %37 ]
  %.350 = phi i32 [ %.4, %47 ], [ 0, %37 ]
  %38 = trunc nuw nsw i64 %indvars.iv54 to i32
  %39 = shl nuw nsw i32 1, %38
  %40 = and i32 %39, %.1
  %.not = icmp eq i32 %40, 0
  br i1 %.not, label %47, label %41

41:                                               ; preds = %.preheader46
  %42 = getelementptr inbounds nuw [18 x i32], ptr %4, i64 0, i64 %indvars.iv54
  %43 = load i32, ptr %42, align 4, !tbaa !43
  %44 = add nsw i32 %.350, 1
  %45 = sext i32 %.350 to i64
  %46 = getelementptr inbounds i32, ptr %1, i64 %45
  store i32 %43, ptr %46, align 4, !tbaa !43
  br label %47

47:                                               ; preds = %.preheader46, %41
  %.4 = phi i32 [ %44, %41 ], [ %.350, %.preheader46 ]
  %indvars.iv.next55 = add nuw nsw i64 %indvars.iv54, 1
  %exitcond57.not = icmp eq i64 %indvars.iv.next55, 18
  br i1 %exitcond57.not, label %48, label %.preheader46, !llvm.loop !50

48:                                               ; preds = %47
  %49 = sext i32 %.1 to i64
  %50 = tail call i32 @av_channel_layout_from_mask(ptr noundef nonnull %7, i64 noundef %49) #7
  call void @llvm.lifetime.end.p0(i64 72, ptr nonnull %4) #7
  br label %51

51:                                               ; preds = %48, %19
  %.2 = phi i32 [ %.139, %19 ], [ %.4, %48 ]
  ret i32 %.2
}